target datalayout = "e-m:e-p270:32:32-p271:32:32-p272:64:64-i64:64-i128:128-f80:128-n8:16:32:64-S128"
target triple = "x86_64-pc-linux-gnu"

%"class.Ipopt::DenseSymMatrix" = type <{ %"class.Ipopt::SymMatrix", ptr, ptr, i8, [7 x i8] }>
%"class.Ipopt::SymMatrix" = type { %"class.Ipopt::Matrix.base", ptr }
%"class.Ipopt::Matrix.base" = type <{ %"class.Ipopt::TaggedObject", %"class.Ipopt::SmartPtr", i32, i8 }>
%"class.Ipopt::TaggedObject" = type { %"class.Ipopt::ReferencedObject.base", %"class.Ipopt::Subject", i32, i32 }
%"class.Ipopt::ReferencedObject.base" = type <{ ptr, i32 }>
%"class.Ipopt::Subject" = type { ptr, %"class.std::vector" }
%"class.std::vector" = type { %"struct.std::_Vector_base" }
%"struct.std::_Vector_base" = type { %"struct.std::_Vector_base<Ipopt::Observer *, std::allocator<Ipopt::Observer *>>::_Vector_impl" }
%"struct.std::_Vector_base<Ipopt::Observer *, std::allocator<Ipopt::Observer *>>::_Vector_impl" = type { %"struct.std::_Vector_base<Ipopt::Observer *, std::allocator<Ipopt::Observer *>>::_Vector_impl_data" }
%"struct.std::_Vector_base<Ipopt::Observer *, std::allocator<Ipopt::Observer *>>::_Vector_impl_data" = type { ptr, ptr, ptr }
%"class.Ipopt::SmartPtr" = type { ptr }
%"class.Ipopt::MatrixSpace" = type { %"class.Ipopt::ReferencedObject.base", i32, i32, [4 x i8] }

; Function Attrs: mustprogress nounwind uwtable
define linkonce_odr noundef i32 @_ZNK5Ipopt11MatrixSpace5NRowsEv(ptr noundef nonnull align 8 dereferenceable(20) %0) #5 comdat align 2 {
  %2 = alloca ptr, align 8
  store ptr %0, ptr %2, align 8, !tbaa !165
  %3 = load ptr, ptr %2, align 8
  %4 = getelementptr inbounds nuw %"class.Ipopt::MatrixSpace", ptr %3, i32 0, i32 1
  %5 = load i32, ptr %4, align 4, !tbaa !175
  ret i32 %5
}

; Function Attrs: mustprogress nounwind uwtable
define linkonce_odr noundef i32 @_ZNK5Ipopt14SymMatrixSpace3DimEv(ptr noundef nonnull align 8 dereferenceable(20) %0) #5 comdat align 2 {
  %2 = alloca ptr, align 8
  store ptr %0, ptr %2, align 8, !tbaa !35
  %3 = load ptr, ptr %2, align 8
  %4 = call noundef i32 @_ZNK5Ipopt11MatrixSpace5NRowsEv(ptr noundef nonnull align 8 dereferenceable(20) %3)
  ret i32 %4
}

; Function Attrs: inlinehint mustprogress uwtable
define linkonce_odr noundef i32 @_ZNK5Ipopt9SymMatrix3DimEv(ptr noundef nonnull align 8 dereferenceable(80) %0) #2 comdat align 2 {
  %2 = alloca ptr, align 8
  store ptr %0, ptr %2, align 8, !tbaa !33
  %3 = load ptr, ptr %2, align 8
  %4 = getelementptr inbounds nuw %"class.Ipopt::SymMatrix", ptr %3, i32 0, i32 1
  %5 = load ptr, ptr %4, align 8, !tbaa !36
  %6 = call noundef i32 @_ZNK5Ipopt14SymMatrixSpace3DimEv(ptr noundef nonnull align 8 dereferenceable(20) %5)
  ret i32 %6
}

; Function Attrs: mustprogress nounwind uwtable
define linkonce_odr noundef ptr @_ZNK5Ipopt14DenseSymMatrix6ValuesEv(ptr noundef nonnull align 8 dereferenceable(97) %0) #5 comdat align 2 {
  %2 = alloca ptr, align 8
  store ptr %0, ptr %2, align 8, !tbaa !3
  %3 = load ptr, ptr %2, align 8
  %4 = getelementptr inbounds nuw %"class.Ipopt::DenseSymMatrix", ptr %3, i32 0, i32 2
  %5 = load ptr, ptr %4, align 8, !tbaa !31
  ret ptr %5
}

; Function Attrs: mustprogress uwtable
define void @_ZN5Ipopt14DenseSymMatrix9AddMatrixEdRKS0_d(ptr noundef nonnull align 8 dereferenceable(97) %0, double noundef %1, ptr noundef nonnull align 8 dereferenceable(97) %2, double noundef %3) #1 align 2 {
  %5 = alloca ptr, align 8
  %6 = alloca double, align 8
  %7 = alloca ptr, align 8
  %8 = alloca double, align 8
  %9 = alloca ptr, align 8
  %10 = alloca i32, align 4
  %11 = alloca i32, align 4
  %12 = alloca i32, align 4
  %13 = alloca i32, align 4
  %14 = alloca i32, align 4
  %15 = alloca i32, align 4
  %16 = alloca i32, align 4
  %17 = alloca i32, align 4
  store ptr %0, ptr %5, align 8, !tbaa !3
  store double %1, ptr %6, align 8, !tbaa !39
  store ptr %2, ptr %7, align 8, !tbaa !3
  store double %3, ptr %8, align 8, !tbaa !39
  %18 = load ptr, ptr %5, align 8
  %19 = load double, ptr %6, align 8, !tbaa !39
  %20 = fcmp oeq double %19, 0.000000e+00
  br i1 %20, label %21, label %22

21:                                               ; preds = %4
  br label %173

22:                                               ; preds = %4
  call void @llvm.lifetime.start.p0(i64 8, ptr %9) #17
  %23 = load ptr, ptr %7, align 8, !tbaa !3
  %24 = call noundef ptr @_ZNK5Ipopt14DenseSymMatrix6ValuesEv(ptr noundef nonnull align 8 dereferenceable(97) %23)
  store ptr %24, ptr %9, align 8, !tbaa !61
  call void @llvm.lifetime.start.p0(i64 4, ptr %10) #17
  %25 = call noundef i32 @_ZNK5Ipopt9SymMatrix3DimEv(ptr noundef nonnull align 8 dereferenceable(80) %18)
  store i32 %25, ptr %10, align 4, !tbaa !57
  %26 = load double, ptr %8, align 8, !tbaa !39
  %27 = fcmp oeq double %26, 0.000000e+00
  br i1 %27, label %28, label %70

28:                                               ; preds = %22
  call void @llvm.lifetime.start.p0(i64 4, ptr %11) #17
  store i32 0, ptr %11, align 4, !tbaa !57
  br label %29

29:                                               ; preds = %66, %28
  %30 = load i32, ptr %11, align 4, !tbaa !57
  %31 = load i32, ptr %10, align 4, !tbaa !57
  %32 = icmp slt i32 %30, %31
  br i1 %32, label %34, label %33

33:                                               ; preds = %29
  store i32 2, ptr %12, align 4
  call void @llvm.lifetime.end.p0(i64 4, ptr %11) #17
  br label %69

34:                                               ; preds = %29
  call void @llvm.lifetime.start.p0(i64 4, ptr %13) #17
  %35 = load i32, ptr %11, align 4, !tbaa !57
  store i32 %35, ptr %13, align 4, !tbaa !57
  br label %36

36:                                               ; preds = %62, %34
  %37 = load i32, ptr %13, align 4, !tbaa !57
  %38 = load i32, ptr %10, align 4, !tbaa !57
  %39 = icmp slt i32 %37, %38
  br i1 %39, label %41, label %40

40:                                               ; preds = %36
  store i32 5, ptr %12, align 4
  call void @llvm.lifetime.end.p0(i64 4, ptr %13) #17
  br label %65

41:                                               ; preds = %36
  %42 = load double, ptr %6, align 8, !tbaa !39
  %43 = load ptr, ptr %9, align 8, !tbaa !61
  %44 = load i32, ptr %13, align 4, !tbaa !57
  %45 = load i32, ptr %11, align 4, !tbaa !57
  %46 = load i32, ptr %10, align 4, !tbaa !57
  %47 = mul nsw i32 %45, %46
  %48 = add nsw i32 %44, %47
  %49 = sext i32 %48 to i64
  %50 = getelementptr inbounds double, ptr %43, i64 %49
  %51 = load double, ptr %50, align 8, !tbaa !39
  %52 = fmul double %42, %51
  %53 = getelementptr inbounds nuw %"class.Ipopt::DenseSymMatrix", ptr %18, i32 0, i32 2
  %54 = load ptr, ptr %53, align 8, !tbaa !31
  %55 = load i32, ptr %13, align 4, !tbaa !57
  %56 = load i32, ptr %11, align 4, !tbaa !57
  %57 = load i32, ptr %10, align 4, !tbaa !57
  %58 = mul nsw i32 %56, %57
  %59 = add nsw i32 %55, %58
  %60 = sext i32 %59 to i64
  %61 = getelementptr inbounds double, ptr %54, i64 %60
  store double %52, ptr %61, align 8, !tbaa !39
  br label %62

62:                                               ; preds = %41
  %63 = load i32, ptr %13, align 4, !tbaa !57
  %64 = add nsw i32 %63, 1
  store i32 %64, ptr %13, align 4, !tbaa !57
  br label %36, !llvm.loop !62

65:                                               ; preds = %40
  br label %66

66:                                               ; preds = %65
  %67 = load i32, ptr %11, align 4, !tbaa !57
  %68 = add nsw i32 %67, 1
  store i32 %68, ptr %11, align 4, !tbaa !57
  br label %29, !llvm.loop !63

69:                                               ; preds = %33
  br label %171

70:                                               ; preds = %22
  %71 = load double, ptr %8, align 8, !tbaa !39
  %72 = fcmp oeq double %71, 1.000000e+00
  br i1 %72, label %73, label %116

73:                                               ; preds = %70
  call void @llvm.lifetime.start.p0(i64 4, ptr %14) #17
  store i32 0, ptr %14, align 4, !tbaa !57
  br label %74

74:                                               ; preds = %112, %73
  %75 = load i32, ptr %14, align 4, !tbaa !57
  %76 = load i32, ptr %10, align 4, !tbaa !57
  %77 = icmp slt i32 %75, %76
  br i1 %77, label %79, label %78

78:                                               ; preds = %74
  store i32 8, ptr %12, align 4
  call void @llvm.lifetime.end.p0(i64 4, ptr %14) #17
  br label %115

79:                                               ; preds = %74
  call void @llvm.lifetime.start.p0(i64 4, ptr %15) #17
  %80 = load i32, ptr %14, align 4, !tbaa !57
  store i32 %80, ptr %15, align 4, !tbaa !57
  br label %81

81:                                               ; preds = %108, %79
  %82 = load i32, ptr %15, align 4, !tbaa !57
  %83 = load i32, ptr %10, align 4, !tbaa !57
  %84 = icmp slt i32 %82, %83
  br i1 %84, label %86, label %85

85:                                               ; preds = %81
  store i32 11, ptr %12, align 4
  call void @llvm.lifetime.end.p0(i64 4, ptr %15) #17
  br label %111

86:                                               ; preds = %81
  %87 = load double, ptr %6, align 8, !tbaa !39
  %88 = load ptr, ptr %9, align 8, !tbaa !61
  %89 = load i32, ptr %15, align 4, !tbaa !57
  %90 = load i32, ptr %14, align 4, !tbaa !57
  %91 = load i32, ptr %10, align 4, !tbaa !57
  %92 = mul nsw i32 %90, %91
  %93 = add nsw i32 %89, %92
  %94 = sext i32 %93 to i64
  %95 = getelementptr inbounds double, ptr %88, i64 %94
  %96 = load double, ptr %95, align 8, !tbaa !39
  %97 = getelementptr inbounds nuw %"class.Ipopt::DenseSymMatrix", ptr %18, i32 0, i32 2
  %98 = load ptr, ptr %97, align 8, !tbaa !31
  %99 = load i32, ptr %15, align 4, !tbaa !57
  %100 = load i32, ptr %14, align 4, !tbaa !57
  %101 = load i32, ptr %10, align 4, !tbaa !57
  %102 = mul nsw i32 %100, %101
  %103 = add nsw i32 %99, %102
  %104 = sext i32 %103 to i64
  %105 = getelementptr inbounds double, ptr %98, i64 %104
  %106 = load double, ptr %105, align 8, !tbaa !39
  %107 = call double @llvm.fmuladd.f64(double %87, double %96, double %106)
  store double %107, ptr %105, align 8, !tbaa !39
  br label %108

108:                                              ; preds = %86
  %109 = load i32, ptr %15, align 4, !tbaa !57
  %110 = add nsw i32 %109, 1
  store i32 %110, ptr %15, align 4, !tbaa !57
  br label %81, !llvm.loop !64

111:                                              ; preds = %85
  br label %112

112:                                              ; preds = %111
  %113 = load i32, ptr %14, align 4, !tbaa !57
  %114 = add nsw i32 %113, 1
  store i32 %114, ptr %14, align 4, !tbaa !57
  br label %74, !llvm.loop !65

115:                                              ; preds = %78
  br label %170

116:                                              ; preds = %70
  call void @llvm.lifetime.start.p0(i64 4, ptr %16) #17
  store i32 0, ptr %16, align 4, !tbaa !57
  br label %117

117:                                              ; preds = %166, %116
  %118 = load i32, ptr %16, align 4, !tbaa !57
  %119 = load i32, ptr %10, align 4, !tbaa !57
  %120 = icmp slt i32 %118, %119
  br i1 %120, label %122, label %121

121:                                              ; preds = %117
  store i32 14, ptr %12, align 4
  call void @llvm.lifetime.end.p0(i64 4, ptr %16) #17
  br label %169

122:                                              ; preds = %117
  call void @llvm.lifetime.start.p0(i64 4, ptr %17) #17
  %123 = load i32, ptr %16, align 4, !tbaa !57
  store i32 %123, ptr %17, align 4, !tbaa !57
  br label %124

124:                                              ; preds = %162, %122
  %125 = load i32, ptr %17, align 4, !tbaa !57
  %126 = load i32, ptr %10, align 4, !tbaa !57
  %127 = icmp slt i32 %125, %126
  br i1 %127, label %129, label %128

128:                                              ; preds = %124
  store i32 17, ptr %12, align 4
  call void @llvm.lifetime.end.p0(i64 4, ptr %17) #17
  br label %165

129:                                              ; preds = %124
  %130 = load double, ptr %6, align 8, !tbaa !39
  %131 = load ptr, ptr %9, align 8, !tbaa !61
  %132 = load i32, ptr %17, align 4, !tbaa !57
  %133 = load i32, ptr %16, align 4, !tbaa !57
  %134 = load i32, ptr %10, align 4, !tbaa !57
  %135 = mul nsw i32 %133, %134
  %136 = add nsw i32 %132, %135
  %137 = sext i32 %136 to i64
  %138 = getelementptr inbounds double, ptr %131, i64 %137
  %139 = load double, ptr %138, align 8, !tbaa !39
  %140 = load double, ptr %8, align 8, !tbaa !39
  %141 = getelementptr inbounds nuw %"class.Ipopt::DenseSymMatrix", ptr %18, i32 0, i32 2
  %142 = load ptr, ptr %141, align 8, !tbaa !31
  %143 = load i32, ptr %17, align 4, !tbaa !57
  %144 = load i32, ptr %16, align 4, !tbaa !57
  %145 = load i32, ptr %10, align 4, !tbaa !57
  %146 = mul nsw i32 %144, %145
  %147 = add nsw i32 %143, %146
  %148 = sext i32 %147 to i64
  %149 = getelementptr inbounds double, ptr %142, i64 %148
  %150 = load double, ptr %149, align 8, !tbaa !39
  %151 = fmul double %140, %150
  %152 = call double @llvm.fmuladd.f64(double %130, double %139, double %151)
  %153 = getelementptr inbounds nuw %"class.Ipopt::DenseSymMatrix", ptr %18, i32 0, i32 2
  %154 = load ptr, ptr %153, align 8, !tbaa !31
  %155 = load i32, ptr %17, align 4, !tbaa !57
  %156 = load i32, ptr %16, align 4, !tbaa !57
  %157 = load i32, ptr %10, align 4, !tbaa !57
  %158 = mul nsw i32 %156, %157
  %159 = add nsw i32 %155, %158
  %160 = sext i32 %159 to i64
  %161 = getelementptr inbounds double, ptr %154, i64 %160
  store double %152, ptr %161, align 8, !tbaa !39
  br label %162

162:                                              ; preds = %129
  %163 = load i32, ptr %17, align 4, !tbaa !57
  %164 = add nsw i32 %163, 1
  store i32 %164, ptr %17, align 4, !tbaa !57
  br label %124, !llvm.loop !66

165:                                              ; preds = %128
  br label %166

166:                                              ; preds = %165
  %167 = load i32, ptr %16, align 4, !tbaa !57
  %168 = add nsw i32 %167, 1
  store i32 %168, ptr %16, align 4, !tbaa !57
  br label %117, !llvm.loop !67

169:                                              ; preds = %121
  br label %170

170:                                              ; preds = %169, %115
  br label %171

171:                                              ; preds = %170, %69
  call void @_ZN5Ipopt12TaggedObject13ObjectChangedEv(ptr noundef nonnull align 8 dereferenceable(56) %18)
  %172 = getelementptr inbounds nuw %"class.Ipopt::DenseSymMatrix", ptr %18, i32 0, i32 3
  store i8 1, ptr %172, align 8, !tbaa !32
  call void @llvm.lifetime.end.p0(i64 4, ptr %10) #17
  call void @llvm.lifetime.end.p0(i64 8, ptr %9) #17
  br label %173

173:                                              ; preds = %171, %21
  ret void
}