; Function Attrs: mustprogress uwtable
define void @_ZN5Ipopt14DenseSymMatrix9AddMatrixEdRKS0_d(ptr noundef nonnull align 8 dereferenceable(97) %0, double noundef %1, ptr noundef nonnull readonly align 8 captures(none) dereferenceable(97) %2, double noundef %3) local_unnamed_addr #1 align 2 {
  %5 = fcmp oeq double %1, 0.000000e+00
  br i1 %5, label %55, label %6

6:                                                ; preds = %4
  %7 = getelementptr inbounds nuw i8, ptr %2, i64 88
  %8 = load ptr, ptr %7, align 8, !tbaa !35
  %9 = getelementptr inbounds nuw i8, ptr %0, i64 72
  %10 = load ptr, ptr %9, align 8, !tbaa !25
  %11 = getelementptr inbounds nuw i8, ptr %10, i64 12
  %12 = load i32, ptr %11, align 4, !tbaa !34
  %13 = fcmp oeq double %3, 0.000000e+00
  br i1 %13, label %.preheader61, label %26

.preheader61:                                     ; preds = %6
  %14 = icmp sgt i32 %12, 0
  br i1 %14, label %.preheader.lr.ph, label %.loopexit

.preheader.lr.ph:                                 ; preds = %.preheader61
  %15 = getelementptr inbounds nuw i8, ptr %0, i64 88
  %16 = load ptr, ptr %15, align 8, !tbaa !35
  %17 = zext nneg i32 %12 to i64
  br label %.preheader

.preheader:                                       ; preds = %.preheader.lr.ph, %19
  %indvars.iv92 = phi i64 [ 0, %.preheader.lr.ph ], [ %indvars.iv.next93, %19 ]
  %18 = mul nuw nsw i64 %indvars.iv92, %17
  br label %20

19:                                               ; preds = %20
  %indvars.iv.next93 = add nuw nsw i64 %indvars.iv92, 1
  %exitcond101.not = icmp eq i64 %indvars.iv.next93, %17
  br i1 %exitcond101.not, label %.loopexit, label %.preheader, !llvm.loop !56

20:                                               ; preds = %.preheader, %20
  %indvars.iv94 = phi i64 [ %indvars.iv92, %.preheader ], [ %indvars.iv.next95, %20 ]
  %21 = add nuw nsw i64 %indvars.iv94, %18
  %22 = getelementptr inbounds nuw double, ptr %8, i64 %21
  %23 = load double, ptr %22, align 8, !tbaa !55
  %24 = fmul double %1, %23
  %25 = getelementptr inbounds nuw double, ptr %16, i64 %21
  store double %24, ptr %25, align 8, !tbaa !55
  %indvars.iv.next95 = add nuw nsw i64 %indvars.iv94, 1
  %exitcond98.not = icmp eq i64 %indvars.iv.next95, %17
  br i1 %exitcond98.not, label %19, label %20, !llvm.loop !57

26:                                               ; preds = %6
  %27 = fcmp oeq double %3, 1.000000e+00
  %28 = icmp sgt i32 %12, 0
  br i1 %27, label %.preheader63, label %.preheader66

.preheader66:                                     ; preds = %26
  br i1 %28, label %.preheader65.lr.ph, label %.loopexit

.preheader65.lr.ph:                               ; preds = %.preheader66
  %29 = getelementptr inbounds nuw i8, ptr %0, i64 88
  %30 = load ptr, ptr %29, align 8, !tbaa !35
  %31 = zext nneg i32 %12 to i64
  br label %.preheader65

.preheader63:                                     ; preds = %26
  br i1 %28, label %.preheader62.lr.ph, label %.loopexit

.preheader62.lr.ph:                               ; preds = %.preheader63
  %32 = getelementptr inbounds nuw i8, ptr %0, i64 88
  %33 = load ptr, ptr %32, align 8, !tbaa !35
  %34 = zext nneg i32 %12 to i64
  br label %.preheader62

.preheader62:                                     ; preds = %.preheader62.lr.ph, %36
  %indvars.iv82 = phi i64 [ 0, %.preheader62.lr.ph ], [ %indvars.iv.next83, %36 ]
  %35 = mul nuw nsw i64 %indvars.iv82, %34
  br label %37

36:                                               ; preds = %37
  %indvars.iv.next83 = add nuw nsw i64 %indvars.iv82, 1
  %exitcond91.not = icmp eq i64 %indvars.iv.next83, %34
  br i1 %exitcond91.not, label %.loopexit, label %.preheader62, !llvm.loop !58

37:                                               ; preds = %.preheader62, %37
  %indvars.iv84 = phi i64 [ %indvars.iv82, %.preheader62 ], [ %indvars.iv.next85, %37 ]
  %38 = add nuw nsw i64 %indvars.iv84, %35
  %39 = getelementptr inbounds nuw double, ptr %8, i64 %38
  %40 = load double, ptr %39, align 8, !tbaa !55
  %41 = getelementptr inbounds nuw double, ptr %33, i64 %38
  %42 = load double, ptr %41, align 8, !tbaa !55
  %43 = tail call double @llvm.fmuladd.f64(double %1, double %40, double %42)
  store double %43, ptr %41, align 8, !tbaa !55
  %indvars.iv.next85 = add nuw nsw i64 %indvars.iv84, 1
  %exitcond88.not = icmp eq i64 %indvars.iv.next85, %34
  br i1 %exitcond88.not, label %36, label %37, !llvm.loop !59

.preheader65:                                     ; preds = %.preheader65.lr.ph, %45
  %indvars.iv = phi i64 [ 0, %.preheader65.lr.ph ], [ %indvars.iv.next, %45 ]
  %44 = mul nuw nsw i64 %indvars.iv, %31
  br label %46

45:                                               ; preds = %46
  %indvars.iv.next = add nuw nsw i64 %indvars.iv, 1
  %exitcond81.not = icmp eq i64 %indvars.iv.next, %31
  br i1 %exitcond81.not, label %.loopexit, label %.preheader65, !llvm.loop !60

46:                                               ; preds = %.preheader65, %46
  %indvars.iv76 = phi i64 [ %indvars.iv, %.preheader65 ], [ %indvars.iv.next77, %46 ]
  %47 = add nuw nsw i64 %indvars.iv76, %44
  %48 = getelementptr inbounds nuw double, ptr %8, i64 %47
  %49 = load double, ptr %48, align 8, !tbaa !55
  %50 = getelementptr inbounds nuw double, ptr %30, i64 %47
  %51 = load double, ptr %50, align 8, !tbaa !55
  %52 = fmul double %3, %51
  %53 = tail call double @llvm.fmuladd.f64(double %1, double %49, double %52)
  store double %53, ptr %50, align 8, !tbaa !55
  %indvars.iv.next77 = add nuw nsw i64 %indvars.iv76, 1
  %exitcond.not = icmp eq i64 %indvars.iv.next77, %31
  br i1 %exitcond.not, label %45, label %46, !llvm.loop !61

.loopexit:                                        ; preds = %45, %36, %19, %.preheader66, %.preheader63, %.preheader61
  tail call void @_ZN5Ipopt12TaggedObject13ObjectChangedEv(ptr noundef nonnull align 8 dereferenceable(56) %0)
  %54 = getelementptr inbounds nuw i8, ptr %0, i64 96
  store i8 1, ptr %54, align 8, !tbaa !36
  br label %55

55:                                               ; preds = %4, %.loopexit
  ret void
}